; Function Attrs: mustprogress uwtable
define void @_ZN8facebook5velox4type6fbhive14HiveTypeParser9nextTokenEb(ptr noalias nocapture writeonly sret(%"struct.facebook::velox::type::fbhive::Token") align 8 %agg.result, ptr nocapture noundef nonnull align 8 dereferenceable(48) %this, i1 noundef zeroext %ignorePredefined) local_unnamed_addr #0 align 2 {
entry:
  %token = alloca %"struct.facebook::velox::type::fbhive::TokenAndRemaining", align 8
  %remaining_ = getelementptr inbounds i8, ptr %this, i64 32
  %agg.tmp.sroa.0.0.copyload = load ptr, ptr %remaining_, align 8
  %agg.tmp.sroa.2.0.remaining_.sroa_idx = getelementptr inbounds i8, ptr %this, i64 40
  %agg.tmp.sroa.2.0.copyload = load ptr, ptr %agg.tmp.sroa.2.0.remaining_.sroa_idx, align 8
  call void @_ZNK8facebook5velox4type6fbhive14HiveTypeParser9nextTokenEN5folly5RangeIPKcEEb(ptr nonnull sret(%"struct.facebook::velox::type::fbhive::TokenAndRemaining") align 8 %token, ptr noundef nonnull align 8 dereferenceable(48) %this, ptr %agg.tmp.sroa.0.0.copyload, ptr %agg.tmp.sroa.2.0.copyload, i1 noundef zeroext %ignorePredefined)
  %remaining = getelementptr inbounds i8, ptr %token, i64 24
  call void @llvm.memcpy.p0.p0.i64(ptr noundef nonnull align 8 dereferenceable(16) %remaining_, ptr noundef nonnull align 8 dereferenceable(16) %remaining, i64 16, i1 false)
  call void @llvm.memcpy.p0.p0.i64(ptr noundef nonnull align 8 dereferenceable(24) %agg.result, ptr noundef nonnull align 8 dereferenceable(24) %token, i64 24, i1 false)
  ret void
}